; Function Attrs: mustprogress uwtable
define internal fastcc noundef zeroext i1 @_ZN9__gnu_cxx5__ops15_Iter_comp_iterIN5zxing6qrcode12_GLOBAL__N_114BestComparatorEEclINS_17__normal_iteratorIPNS2_3RefINS3_13FinderPatternEEESt6vectorISB_SaISB_EEEESG_EEbT_T0_(ptr nocapture readonly %0, ptr nocapture readonly %1) unnamed_addr #0 align 2 personality ptr @__gxx_personality_v0 {
  %3 = load ptr, ptr %0, align 8
  %.not.i.i = icmp eq ptr %3, null
  br i1 %.not.i.i, label %_ZN5zxing3RefINS_6qrcode13FinderPatternEEC2ERKS3_.exit, label %4

4:                                                ; preds = %2
  %5 = getelementptr inbounds i8, ptr %3, i64 8
  %6 = load i32, ptr %5, align 8
  %7 = add i32 %6, 1
  store i32 %7, ptr %5, align 8
  br label %_ZN5zxing3RefINS_6qrcode13FinderPatternEEC2ERKS3_.exit

_ZN5zxing3RefINS_6qrcode13FinderPatternEEC2ERKS3_.exit: ; preds = %4, %2
  %8 = load ptr, ptr %1, align 8
  %.not.i.i4 = icmp eq ptr %8, null
  br i1 %.not.i.i4, label %_ZN5zxing3RefINS_6qrcode13FinderPatternEEC2ERKS3_.exit7, label %9

9:                                                ; preds = %_ZN5zxing3RefINS_6qrcode13FinderPatternEEC2ERKS3_.exit
  %10 = getelementptr inbounds i8, ptr %8, i64 8
  %11 = load i32, ptr %10, align 8
  %12 = add i32 %11, 1
  store i32 %12, ptr %10, align 8
  br label %_ZN5zxing3RefINS_6qrcode13FinderPatternEEC2ERKS3_.exit7

_ZN5zxing3RefINS_6qrcode13FinderPatternEEC2ERKS3_.exit7: ; preds = %_ZN5zxing3RefINS_6qrcode13FinderPatternEEC2ERKS3_.exit, %9
  %13 = invoke noundef i32 @_ZNK5zxing6qrcode13FinderPattern8getCountEv(ptr noundef nonnull align 8 dereferenceable(40) %3)
          to label %.noexc unwind label %39

.noexc:                                           ; preds = %_ZN5zxing3RefINS_6qrcode13FinderPatternEEC2ERKS3_.exit7
  %14 = invoke noundef i32 @_ZNK5zxing6qrcode13FinderPattern8getCountEv(ptr noundef nonnull align 8 dereferenceable(40) %8)
          to label %.noexc8 unwind label %39

.noexc8:                                          ; preds = %.noexc
  %.not.i = icmp eq i32 %13, %14
  br i1 %.not.i, label %19, label %15

15:                                               ; preds = %.noexc8
  %16 = invoke noundef i32 @_ZNK5zxing6qrcode13FinderPattern8getCountEv(ptr noundef nonnull align 8 dereferenceable(40) %3)
          to label %.noexc9 unwind label %39

.noexc9:                                          ; preds = %15
  %17 = invoke noundef i32 @_ZNK5zxing6qrcode13FinderPattern8getCountEv(ptr noundef nonnull align 8 dereferenceable(40) %8)
          to label %.noexc10 unwind label %39

.noexc10:                                         ; preds = %.noexc9
  %18 = icmp sgt i32 %16, %17
  br label %_ZN5zxing6qrcode12_GLOBAL__N_114BestComparatorclENS_3RefINS0_13FinderPatternEEES5_.exit

19:                                               ; preds = %.noexc8
  %20 = invoke noundef float @_ZNK5zxing6qrcode13FinderPattern22getEstimatedModuleSizeEv(ptr noundef nonnull align 8 dereferenceable(40) %3)
          to label %.noexc11 unwind label %39

.noexc11:                                         ; preds = %19
  %21 = invoke noundef float @_ZNK5zxing6qrcode13FinderPattern22getEstimatedModuleSizeEv(ptr noundef nonnull align 8 dereferenceable(40) %8)
          to label %.noexc12 unwind label %39

.noexc12:                                         ; preds = %.noexc11
  %22 = fcmp ogt float %20, %21
  br label %_ZN5zxing6qrcode12_GLOBAL__N_114BestComparatorclENS_3RefINS0_13FinderPatternEEES5_.exit

_ZN5zxing6qrcode12_GLOBAL__N_114BestComparatorclENS_3RefINS0_13FinderPatternEEES5_.exit: ; preds = %.noexc10, %.noexc12
  %.0.i = phi i1 [ %18, %.noexc10 ], [ %22, %.noexc12 ]
  %23 = getelementptr inbounds i8, ptr %8, i64 8
  %24 = load i32, ptr %23, align 8
  %25 = add i32 %24, -1
  store i32 %25, ptr %23, align 8
  %26 = icmp eq i32 %25, 0
  br i1 %26, label %27, label %_ZN5zxing3RefINS_6qrcode13FinderPatternEED2Ev.exit

27:                                               ; preds = %_ZN5zxing6qrcode12_GLOBAL__N_114BestComparatorclENS_3RefINS0_13FinderPatternEEES5_.exit
  store i32 -559026175, ptr %23, align 8
  %28 = load ptr, ptr %8, align 8
  %29 = getelementptr inbounds i8, ptr %28, i64 8
  %30 = load ptr, ptr %29, align 8
  tail call void %30(ptr noundef nonnull align 8 dereferenceable(12) %8) #22
  br label %_ZN5zxing3RefINS_6qrcode13FinderPatternEED2Ev.exit

_ZN5zxing3RefINS_6qrcode13FinderPatternEED2Ev.exit: ; preds = %27, %_ZN5zxing6qrcode12_GLOBAL__N_114BestComparatorclENS_3RefINS0_13FinderPatternEEES5_.exit
  %31 = getelementptr inbounds i8, ptr %3, i64 8
  %32 = load i32, ptr %31, align 8
  %33 = add i32 %32, -1
  store i32 %33, ptr %31, align 8
  %34 = icmp eq i32 %33, 0
  br i1 %34, label %35, label %_ZN5zxing3RefINS_6qrcode13FinderPatternEED2Ev.exit15

35:                                               ; preds = %_ZN5zxing3RefINS_6qrcode13FinderPatternEED2Ev.exit
  store i32 -559026175, ptr %31, align 8
  %36 = load ptr, ptr %3, align 8
  %37 = getelementptr inbounds i8, ptr %36, i64 8
  %38 = load ptr, ptr %37, align 8
  tail call void %38(ptr noundef nonnull align 8 dereferenceable(12) %3) #22
  br label %_ZN5zxing3RefINS_6qrcode13FinderPatternEED2Ev.exit15

_ZN5zxing3RefINS_6qrcode13FinderPatternEED2Ev.exit15: ; preds = %_ZN5zxing3RefINS_6qrcode13FinderPatternEED2Ev.exit, %35
  ret i1 %.0.i

39:                                               ; preds = %.noexc11, %19, %.noexc9, %15, %.noexc, %_ZN5zxing3RefINS_6qrcode13FinderPatternEEC2ERKS3_.exit7
  %40 = landingpad { ptr, i32 }
          cleanup
  br i1 %.not.i.i4, label %_ZN5zxing3RefINS_6qrcode13FinderPatternEED2Ev.exit17, label %41

41:                                               ; preds = %39
  %42 = getelementptr inbounds i8, ptr %8, i64 8
  %43 = load i32, ptr %42, align 8
  %44 = add i32 %43, -1
  store i32 %44, ptr %42, align 8
  %45 = icmp eq i32 %44, 0
  br i1 %45, label %46, label %_ZN5zxing3RefINS_6qrcode13FinderPatternEED2Ev.exit17

46:                                               ; preds = %41
  store i32 -559026175, ptr %42, align 8
  %47 = load ptr, ptr %8, align 8
  %48 = getelementptr inbounds i8, ptr %47, i64 8
  %49 = load ptr, ptr %48, align 8
  tail call void %49(ptr noundef nonnull align 8 dereferenceable(12) %8) #22
  br label %_ZN5zxing3RefINS_6qrcode13FinderPatternEED2Ev.exit17

_ZN5zxing3RefINS_6qrcode13FinderPatternEED2Ev.exit17: ; preds = %46, %41, %39
  br i1 %.not.i.i, label %_ZN5zxing3RefINS_6qrcode13FinderPatternEED2Ev.exit19, label %50

50:                                               ; preds = %_ZN5zxing3RefINS_6qrcode13FinderPatternEED2Ev.exit17
  %51 = getelementptr inbounds i8, ptr %3, i64 8
  %52 = load i32, ptr %51, align 8
  %53 = add i32 %52, -1
  store i32 %53, ptr %51, align 8
  %54 = icmp eq i32 %53, 0
  br i1 %54, label %55, label %_ZN5zxing3RefINS_6qrcode13FinderPatternEED2Ev.exit19

55:                                               ; preds = %50
  store i32 -559026175, ptr %51, align 8
  %56 = load ptr, ptr %3, align 8
  %57 = getelementptr inbounds i8, ptr %56, i64 8
  %58 = load ptr, ptr %57, align 8
  tail call void %58(ptr noundef nonnull align 8 dereferenceable(12) %3) #22
  br label %_ZN5zxing3RefINS_6qrcode13FinderPatternEED2Ev.exit19

_ZN5zxing3RefINS_6qrcode13FinderPatternEED2Ev.exit19: ; preds = %_ZN5zxing3RefINS_6qrcode13FinderPatternEED2Ev.exit17, %50, %55
  resume { ptr, i32 } %40
}